target datalayout = "e-m:e-p270:32:32-p271:32:32-p272:64:64-i64:64-i128:128-f80:128-n8:16:32:64-S128"
target triple = "x86_64-pc-linux-gnu"

@l___private_Lean_Meta_Tactic_Grind_Arith_CommRing_DenoteExpr_0__Lean_Meta_Grind_Arith_CommRing_denoteNum___at_Lean_Meta_Grind_Arith_CommRing_getPolyConst___spec__2___closed__1 = internal global ptr null, align 8
@l___private_Lean_Meta_Tactic_Grind_Arith_CommRing_DenoteExpr_0__Lean_Meta_Grind_Arith_CommRing_denoteNum___at_Lean_Meta_Grind_Arith_CommRing_getPolyConst___spec__2___closed__2 = internal global ptr null, align 8
@l_Lean_Meta_Grind_Arith_CommRing_Null_setEqUnsat___lambda__1___closed__15 = internal global ptr null, align 8
@l_Lean_Meta_Grind_Arith_CommRing_Null_setEqUnsat___lambda__1___closed__16 = internal global ptr null, align 8
@l_Lean_Meta_Grind_Arith_CommRing_Null_setEqUnsat___lambda__1___closed__19 = internal global ptr null, align 8

; Function Attrs: nounwind uwtable
define internal ptr @_init_l_Lean_Meta_Grind_Arith_CommRing_Null_setEqUnsat___lambda__1___closed__20() #2 {
  %1 = alloca ptr, align 8
  %2 = alloca ptr, align 8
  %3 = alloca ptr, align 8
  %4 = alloca ptr, align 8
  %5 = alloca ptr, align 8
  %6 = alloca ptr, align 8
  br label %7

7:                                                ; preds = %0
  call void @llvm.lifetime.start.p0(i64 8, ptr %1) #7
  call void @llvm.lifetime.start.p0(i64 8, ptr %2) #7
  call void @llvm.lifetime.start.p0(i64 8, ptr %3) #7
  call void @llvm.lifetime.start.p0(i64 8, ptr %4) #7
  call void @llvm.lifetime.start.p0(i64 8, ptr %5) #7
  call void @llvm.lifetime.start.p0(i64 8, ptr %6) #7
  %8 = load ptr, ptr @l___private_Lean_Meta_Tactic_Grind_Arith_CommRing_DenoteExpr_0__Lean_Meta_Grind_Arith_CommRing_denoteNum___at_Lean_Meta_Grind_Arith_CommRing_getPolyConst___spec__2___closed__1, align 8, !tbaa !8
  store ptr %8, ptr %1, align 8, !tbaa !8
  %9 = load ptr, ptr @l___private_Lean_Meta_Tactic_Grind_Arith_CommRing_DenoteExpr_0__Lean_Meta_Grind_Arith_CommRing_denoteNum___at_Lean_Meta_Grind_Arith_CommRing_getPolyConst___spec__2___closed__2, align 8, !tbaa !8
  store ptr %9, ptr %2, align 8, !tbaa !8
  %10 = load ptr, ptr @l_Lean_Meta_Grind_Arith_CommRing_Null_setEqUnsat___lambda__1___closed__15, align 8, !tbaa !8
  store ptr %10, ptr %3, align 8, !tbaa !8
  %11 = load ptr, ptr @l_Lean_Meta_Grind_Arith_CommRing_Null_setEqUnsat___lambda__1___closed__16, align 8, !tbaa !8
  store ptr %11, ptr %4, align 8, !tbaa !8
  %12 = load ptr, ptr @l_Lean_Meta_Grind_Arith_CommRing_Null_setEqUnsat___lambda__1___closed__19, align 8, !tbaa !8
  store ptr %12, ptr %5, align 8, !tbaa !8
  %13 = load ptr, ptr %1, align 8, !tbaa !8
  %14 = load ptr, ptr %2, align 8, !tbaa !8
  %15 = load ptr, ptr %3, align 8, !tbaa !8
  %16 = load ptr, ptr %4, align 8, !tbaa !8
  %17 = load ptr, ptr %5, align 8, !tbaa !8
  %18 = call ptr @l_Lean_Name_mkStr5(ptr noundef %13, ptr noundef %14, ptr noundef %15, ptr noundef %16, ptr noundef %17)
  store ptr %18, ptr %6, align 8, !tbaa !8
  %19 = load ptr, ptr %6, align 8, !tbaa !8
  call void @llvm.lifetime.end.p0(i64 8, ptr %6) #7
  call void @llvm.lifetime.end.p0(i64 8, ptr %5) #7
  call void @llvm.lifetime.end.p0(i64 8, ptr %4) #7
  call void @llvm.lifetime.end.p0(i64 8, ptr %3) #7
  call void @llvm.lifetime.end.p0(i64 8, ptr %2) #7
  call void @llvm.lifetime.end.p0(i64 8, ptr %1) #7
  ret ptr %19
}